; Function Attrs: mustprogress nounwind uwtable
define dso_local void @_ZNK4node26SocketAddressBlockListWrap10MemoryInfoEPNS_13MemoryTrackerE(ptr nocapture noundef nonnull readonly align 8 dereferenceable(48) %this, ptr noundef %tracker) unnamed_addr #3 align 2 {
entry:
  %blocklist_ = getelementptr inbounds i8, ptr %this, i64 32
  %0 = load ptr, ptr %blocklist_, align 8
  %vtable = load ptr, ptr %0, align 8
  %vfn = getelementptr inbounds i8, ptr %vtable, i64 16
  %1 = load ptr, ptr %vfn, align 8
  tail call void %1(ptr noundef nonnull align 8 dereferenceable(144) %0, ptr noundef %tracker) #21
  ret void
}